target datalayout = "e-m:e-p270:32:32-p271:32:32-p272:64:64-i64:64-i128:128-f80:128-n8:16:32:64-S128"
target triple = "x86_64-unknown-linux-gnu"

%struct.zlib_data = type { %struct.z_stream_s, ptr, i32, ptr }
%struct.z_stream_s = type { ptr, i32, i64, ptr, i32, i64, ptr, ptr, ptr, ptr, ptr, i32, i64, i64 }
%struct.QemuThread = type { i64 }
%struct.QemuSemaphore = type { %struct.QemuMutex, %struct.QemuCond, i32 }
%struct.QemuCond = type { %union.pthread_cond_t, i8 }
%union.pthread_cond_t = type { %struct.__pthread_cond_s }
%struct.__pthread_cond_s = type { %union.__atomic_wide_counter, %union.__atomic_wide_counter, [2 x i32], [2 x i32], i32, i32, [2 x i32] }
%union.__atomic_wide_counter = type { i64 }
%struct.QemuMutex = type { %union.pthread_mutex_t, i8 }
%union.pthread_mutex_t = type { %struct.__pthread_mutex_s }
%struct.__pthread_mutex_s = type { i32, i32, i32, i32, i32, i16, i16, %struct.__pthread_internal_list }
%struct.__pthread_internal_list = type { ptr, ptr }
%struct.MultiFDRecvParams = type { i8, ptr, %struct.QemuThread, ptr, i32, i32, i32, %struct.QemuSemaphore, %struct.QemuMutex, i8, i8, i32, i64, ptr, i32, i64, ptr, ptr, i64, ptr, ptr, i32, ptr }

@.str = private unnamed_addr constant [7 x i8] c"1.2.11\00", align 1
@.str.4 = private unnamed_addr constant [33 x i8] c"../qemu/migration/multifd-zlib.c\00", align 1
@__func__.zlib_recv_setup = private unnamed_addr constant [16 x i8] c"zlib_recv_setup\00", align 1
@.str.8 = private unnamed_addr constant [32 x i8] c"multifd %u: inflate init failed\00", align 1
@.str.9 = private unnamed_addr constant [36 x i8] c"multifd %u: out of memory for zbuff\00", align 1

; Function Attrs: nounwind sspstrong uwtable
define internal i32 @zlib_recv_setup(ptr noundef %p, ptr noundef %errp) #0 {
entry:
  %retval = alloca i32, align 4
  %p.addr = alloca ptr, align 8
  %errp.addr = alloca ptr, align 8
  %z = alloca ptr, align 8
  %zs = alloca ptr, align 8
  store ptr %p, ptr %p.addr, align 8
  store ptr %errp, ptr %errp.addr, align 8
  %call = call noalias ptr @g_malloc0_n(i64 noundef 1, i64 noundef 136) #5
  store ptr %call, ptr %z, align 8
  %0 = load ptr, ptr %z, align 8
  %zs1 = getelementptr inbounds %struct.zlib_data, ptr %0, i32 0, i32 0
  store ptr %zs1, ptr %zs, align 8
  %1 = load ptr, ptr %z, align 8
  %2 = load ptr, ptr %p.addr, align 8
  %data = getelementptr inbounds %struct.MultiFDRecvParams, ptr %2, i32 0, i32 22
  store ptr %1, ptr %data, align 8
  %3 = load ptr, ptr %zs, align 8
  %zalloc = getelementptr inbounds %struct.z_stream_s, ptr %3, i32 0, i32 8
  store ptr null, ptr %zalloc, align 8
  %4 = load ptr, ptr %zs, align 8
  %zfree = getelementptr inbounds %struct.z_stream_s, ptr %4, i32 0, i32 9
  store ptr null, ptr %zfree, align 8
  %5 = load ptr, ptr %zs, align 8
  %opaque = getelementptr inbounds %struct.z_stream_s, ptr %5, i32 0, i32 10
  store ptr null, ptr %opaque, align 8
  %6 = load ptr, ptr %zs, align 8
  %avail_in = getelementptr inbounds %struct.z_stream_s, ptr %6, i32 0, i32 1
  store i32 0, ptr %avail_in, align 8
  %7 = load ptr, ptr %zs, align 8
  %next_in = getelementptr inbounds %struct.z_stream_s, ptr %7, i32 0, i32 0
  store ptr null, ptr %next_in, align 8
  %8 = load ptr, ptr %zs, align 8
  %call2 = call i32 @inflateInit_(ptr noundef %8, ptr noundef @.str, i32 noundef 112)
  %cmp = icmp ne i32 %call2, 0
  br i1 %cmp, label %if.then, label %if.end

if.then:                                          ; preds = %entry
  %9 = load ptr, ptr %errp.addr, align 8
  %10 = load ptr, ptr %p.addr, align 8
  %id = getelementptr inbounds %struct.MultiFDRecvParams, ptr %10, i32 0, i32 0
  %11 = load i8, ptr %id, align 8
  %conv = zext i8 %11 to i32
  call void (ptr, ptr, i32, ptr, ptr, ...) @error_setg_internal(ptr noundef %9, ptr noundef @.str.4, i32 noundef 199, ptr noundef @__func__.zlib_recv_setup, ptr noundef @.str.8, i32 noundef %conv)
  store i32 -1, ptr %retval, align 4
  br label %return

if.end:                                           ; preds = %entry
  %12 = load ptr, ptr %z, align 8
  %zbuff_len = getelementptr inbounds %struct.zlib_data, ptr %12, i32 0, i32 2
  store i32 1048576, ptr %zbuff_len, align 8
  %13 = load ptr, ptr %z, align 8
  %zbuff_len3 = getelementptr inbounds %struct.zlib_data, ptr %13, i32 0, i32 2
  %14 = load i32, ptr %zbuff_len3, align 8
  %conv4 = zext i32 %14 to i64
  %call5 = call noalias ptr @g_try_malloc(i64 noundef %conv4) #6
  %15 = load ptr, ptr %z, align 8
  %zbuff = getelementptr inbounds %struct.zlib_data, ptr %15, i32 0, i32 1
  store ptr %call5, ptr %zbuff, align 8
  %16 = load ptr, ptr %z, align 8
  %zbuff6 = getelementptr inbounds %struct.zlib_data, ptr %16, i32 0, i32 1
  %17 = load ptr, ptr %zbuff6, align 8
  %tobool = icmp ne ptr %17, null
  br i1 %tobool, label %if.end11, label %if.then7

if.then7:                                         ; preds = %if.end
  %18 = load ptr, ptr %zs, align 8
  %call8 = call i32 @inflateEnd(ptr noundef %18)
  %19 = load ptr, ptr %errp.addr, align 8
  %20 = load ptr, ptr %p.addr, align 8
  %id9 = getelementptr inbounds %struct.MultiFDRecvParams, ptr %20, i32 0, i32 0
  %21 = load i8, ptr %id9, align 8
  %conv10 = zext i8 %21 to i32
  call void (ptr, ptr, i32, ptr, ptr, ...) @error_setg_internal(ptr noundef %19, ptr noundef @.str.4, i32 noundef 207, ptr noundef @__func__.zlib_recv_setup, ptr noundef @.str.9, i32 noundef %conv10)
  store i32 -1, ptr %retval, align 4
  br label %return

if.end11:                                         ; preds = %if.end
  store i32 0, ptr %retval, align 4
  br label %return

return:                                           ; preds = %if.end11, %if.then7, %if.then
  %22 = load i32, ptr %retval, align 4
  ret i32 %22
}