; Function Attrs: nounwind sspstrong uwtable
define internal range(i32 -1, 1) i32 @zlib_recv_setup(ptr noundef captures(none) initializes((296, 304)) %p, ptr noundef %errp) #0 {
entry:
  %call = tail call noalias dereferenceable_or_null(136) ptr @g_malloc0_n(i64 noundef 1, i64 noundef 136) #7
  %data = getelementptr inbounds nuw i8, ptr %p, i64 296
  store ptr %call, ptr %data, align 8
  %zalloc = getelementptr inbounds nuw i8, ptr %call, i64 64
  %avail_in = getelementptr inbounds nuw i8, ptr %call, i64 8
  store i32 0, ptr %avail_in, align 8
  store ptr null, ptr %call, align 8
  tail call void @llvm.memset.p0.i64(ptr noundef nonnull align 8 dereferenceable(24) %zalloc, i8 0, i64 24, i1 false)
  %call2 = tail call i32 @inflateInit_(ptr noundef nonnull %call, ptr noundef nonnull @.str, i32 noundef 112) #6
  %cmp.not = icmp eq i32 %call2, 0
  br i1 %cmp.not, label %if.end, label %if.then

if.then:                                          ; preds = %entry
  %0 = load i8, ptr %p, align 8
  %conv = zext i8 %0 to i32
  tail call void (ptr, ptr, i32, ptr, ptr, ...) @error_setg_internal(ptr noundef %errp, ptr noundef nonnull @.str.4, i32 noundef 199, ptr noundef nonnull @__func__.zlib_recv_setup, ptr noundef nonnull @.str.8, i32 noundef %conv) #6
  br label %return

if.end:                                           ; preds = %entry
  %zbuff_len = getelementptr inbounds nuw i8, ptr %call, i64 120
  store i32 1048576, ptr %zbuff_len, align 8
  %call5 = tail call noalias dereferenceable_or_null(1048576) ptr @g_try_malloc(i64 noundef 1048576) #8
  %zbuff = getelementptr inbounds nuw i8, ptr %call, i64 112
  store ptr %call5, ptr %zbuff, align 8
  %tobool.not = icmp eq ptr %call5, null
  br i1 %tobool.not, label %if.then7, label %return

if.then7:                                         ; preds = %if.end
  %call8 = tail call i32 @inflateEnd(ptr noundef nonnull %call) #6
  %1 = load i8, ptr %p, align 8
  %conv10 = zext i8 %1 to i32
  tail call void (ptr, ptr, i32, ptr, ptr, ...) @error_setg_internal(ptr noundef %errp, ptr noundef nonnull @.str.4, i32 noundef 207, ptr noundef nonnull @__func__.zlib_recv_setup, ptr noundef nonnull @.str.9, i32 noundef %conv10) #6
  br label %return

return:                                           ; preds = %if.end, %if.then7, %if.then
  %retval.0 = phi i32 [ -1, %if.then ], [ -1, %if.then7 ], [ 0, %if.end ]
  ret i32 %retval.0
}